; ModuleID = 'bench/linux/original/exstorob.ll'
source_filename = "bench/linux/original/exstorob.ll"
target datalayout = "e-m:e-p270:32:32-p271:32:32-p272:64:64-i64:64-i128:128-f80:128-n8:16:32:64-S128"
target triple = "x86_64-unknown-linux-gnu"

; Function Attrs: fn_ret_thunk_extern nounwind null_pointer_is_valid
define dso_local noundef i32 @acpi_ex_store_buffer_to_buffer(ptr noundef readonly %0, ptr noundef %1) local_unnamed_addr #0 align 16 {
  %3 = alloca i64, align 8
  %4 = icmp eq ptr %0, %1
  br i1 %4, label %40, label %5

5:                                                ; preds = %2
  %6 = getelementptr inbounds i8, ptr %0, i64 16
  %7 = load ptr, ptr %6, align 8
  %8 = getelementptr inbounds i8, ptr %0, i64 24
  %9 = load i32, ptr %8, align 8
  %10 = getelementptr inbounds i8, ptr %1, i64 24
  %11 = load i32, ptr %10, align 8
  %12 = icmp eq i32 %11, 0
  br i1 %12, label %18, label %13

13:                                               ; preds = %5
  %14 = getelementptr inbounds i8, ptr %1, i64 12
  %15 = load i8, ptr %14, align 4
  %16 = and i8 %15, 2
  %17 = icmp eq i8 %16, 0
  br i1 %17, label %27, label %18

18:                                               ; preds = %13, %5
  call void @llvm.lifetime.start.p0(i64 8, ptr nonnull %3) #6
  store i64 0, ptr %3, align 8, !annotation !5
  call void asm sideeffect "# __raw_save_flags\0A\09pushf ; pop $0", "=*rm,~{memory},~{dirflag},~{fpsr},~{flags}"(ptr nonnull elementtype(i64) %3) #6, !srcloc !6
  %19 = load i64, ptr %3, align 8
  call void @llvm.lifetime.end.p0(i64 8, ptr nonnull %3) #6
  %20 = and i64 %19, 512
  %21 = icmp eq i64 %20, 0
  %22 = select i1 %21, i32 2080, i32 3264
  %23 = zext i32 %9 to i64
  %24 = call noalias align 8 ptr @__kmalloc(i64 noundef %23, i32 noundef %22) #7
  %25 = getelementptr inbounds i8, ptr %1, i64 16
  store ptr %24, ptr %25, align 8
  %26 = icmp eq ptr %24, null
  br i1 %26, label %40, label %.thread

.thread:                                          ; preds = %18
  store i32 %9, ptr %10, align 8
  br label %29

27:                                               ; preds = %13
  %.phi.trans.insert = getelementptr inbounds i8, ptr %1, i64 16
  %.pre = load ptr, ptr %.phi.trans.insert, align 8
  %.pre3 = zext i32 %11 to i64
  %28 = icmp ugt i32 %9, %11
  br i1 %28, label %34, label %29

29:                                               ; preds = %.thread, %27
  %30 = phi ptr [ %24, %.thread ], [ %.pre, %27 ]
  %.pre-phi5 = phi i64 [ %23, %.thread ], [ %.pre3, %27 ]
  %31 = getelementptr inbounds i8, ptr %1, i64 16
  call void @llvm.memset.p0.i64(ptr align 1 %30, i8 0, i64 %.pre-phi5, i1 false)
  %32 = load ptr, ptr %31, align 8
  %33 = zext i32 %9 to i64
  call void @llvm.memcpy.p0.p0.i64(ptr align 1 %32, ptr align 1 %7, i64 %33, i1 false)
  br label %35

34:                                               ; preds = %27
  tail call void @llvm.memcpy.p0.p0.i64(ptr align 1 %.pre, ptr align 1 %7, i64 %.pre3, i1 false)
  br label %35

35:                                               ; preds = %34, %29
  %36 = getelementptr inbounds i8, ptr %0, i64 12
  %37 = load i8, ptr %36, align 4
  %38 = getelementptr inbounds i8, ptr %1, i64 12
  %39 = and i8 %37, -3
  store i8 %39, ptr %38, align 4
  br label %40

40:                                               ; preds = %35, %18, %2
  %41 = phi i32 [ 0, %35 ], [ 0, %2 ], [ 4, %18 ]
  ret i32 %41
}

; Function Attrs: mustprogress nocallback nofree nosync nounwind willreturn memory(argmem: readwrite)
declare void @llvm.lifetime.start.p0(i64 immarg, ptr nocapture) #1

; Function Attrs: mustprogress nocallback nofree nounwind willreturn memory(argmem: write)
declare void @llvm.memset.p0.i64(ptr nocapture writeonly, i8, i64, i1 immarg) #2

; Function Attrs: mustprogress nocallback nofree nounwind willreturn memory(argmem: readwrite)
declare void @llvm.memcpy.p0.p0.i64(ptr noalias nocapture writeonly, ptr noalias nocapture readonly, i64, i1 immarg) #3

; Function Attrs: mustprogress nocallback nofree nosync nounwind willreturn memory(argmem: readwrite)
declare void @llvm.lifetime.end.p0(i64 immarg, ptr nocapture) #1

; Function Attrs: fn_ret_thunk_extern nounwind null_pointer_is_valid
define dso_local noundef i32 @acpi_ex_store_string_to_string(ptr noundef readonly %0, ptr noundef %1) local_unnamed_addr #0 align 16 {
  %3 = alloca i64, align 8
  %4 = icmp eq ptr %0, %1
  br i1 %4, label %49, label %5

5:                                                ; preds = %2
  %6 = getelementptr inbounds i8, ptr %0, i64 16
  %7 = load ptr, ptr %6, align 8
  %8 = getelementptr inbounds i8, ptr %0, i64 24
  %9 = load i32, ptr %8, align 8
  %10 = getelementptr inbounds i8, ptr %1, i64 24
  %11 = load i32, ptr %10, align 8
  %12 = icmp ult i32 %9, %11
  br i1 %12, label %13, label %25

13:                                               ; preds = %5
  %14 = getelementptr inbounds i8, ptr %1, i64 12
  %15 = load i8, ptr %14, align 4
  %16 = and i8 %15, 2
  %17 = icmp eq i8 %16, 0
  br i1 %17, label %18, label %25

18:                                               ; preds = %13
  %19 = getelementptr inbounds i8, ptr %1, i64 16
  %20 = load ptr, ptr %19, align 8
  %21 = zext i32 %11 to i64
  %22 = add nuw nsw i64 %21, 1
  tail call void @llvm.memset.p0.i64(ptr noundef align 1 %20, i8 0, i64 %22, i1 false)
  %23 = load ptr, ptr %19, align 8
  %24 = zext i32 %9 to i64
  tail call void @llvm.memcpy.p0.p0.i64(ptr align 1 %23, ptr align 1 %7, i64 %24, i1 false)
  br label %48

25:                                               ; preds = %13, %5
  %26 = getelementptr inbounds i8, ptr %1, i64 16
  %27 = load ptr, ptr %26, align 8
  %28 = icmp eq ptr %27, null
  br i1 %28, label %35, label %29

29:                                               ; preds = %25
  %30 = getelementptr inbounds i8, ptr %1, i64 12
  %31 = load i8, ptr %30, align 4
  %32 = and i8 %31, 2
  %33 = icmp eq i8 %32, 0
  br i1 %33, label %34, label %35

34:                                               ; preds = %29
  tail call void @kfree(ptr noundef nonnull %27) #6
  br label %35

35:                                               ; preds = %34, %29, %25
  %36 = zext i32 %9 to i64
  call void @llvm.lifetime.start.p0(i64 8, ptr nonnull %3) #6
  store i64 0, ptr %3, align 8, !annotation !5
  call void asm sideeffect "# __raw_save_flags\0A\09pushf ; pop $0", "=*rm,~{memory},~{dirflag},~{fpsr},~{flags}"(ptr nonnull elementtype(i64) %3) #6, !srcloc !6
  %37 = load i64, ptr %3, align 8
  call void @llvm.lifetime.end.p0(i64 8, ptr nonnull %3) #6
  %38 = and i64 %37, 512
  %39 = icmp eq i64 %38, 0
  %40 = select i1 %39, i32 2336, i32 3520
  %41 = add nuw nsw i64 %36, 1
  %42 = call noalias align 8 ptr @__kmalloc(i64 noundef %41, i32 noundef %40) #7
  store ptr %42, ptr %26, align 8
  %43 = icmp eq ptr %42, null
  br i1 %43, label %49, label %44

44:                                               ; preds = %35
  %45 = getelementptr inbounds i8, ptr %1, i64 12
  %46 = load i8, ptr %45, align 4
  %47 = and i8 %46, -3
  store i8 %47, ptr %45, align 4
  call void @llvm.memcpy.p0.p0.i64(ptr nonnull align 8 %42, ptr align 1 %7, i64 %36, i1 false)
  br label %48

48:                                               ; preds = %44, %18
  store i32 %9, ptr %10, align 8
  br label %49

49:                                               ; preds = %48, %35, %2
  %50 = phi i32 [ 0, %48 ], [ 0, %2 ], [ 4, %35 ]
  ret i32 %50
}

; Function Attrs: null_pointer_is_valid allocsize(0)
declare dso_local noalias ptr @__kmalloc(i64 noundef, i32 noundef) local_unnamed_addr #4

; Function Attrs: null_pointer_is_valid
declare dso_local void @kfree(ptr noundef) local_unnamed_addr #5


!llvm.module.flags = !{!0, !1, !2, !3, !4}

!0 = !{i32 1, !"wchar_size", i32 2}
!1 = !{i32 8, !"cf-protection-branch", i32 1}
!2 = !{i32 4, !"function_return_thunk_extern", i32 1}
!3 = !{i32 4, !"indirect_branch_cs_prefix", i32 1}
!4 = !{i32 4, !"SkipRaxSetup", i32 1}
!5 = !{!"auto-init"}
!6 = !{i64 1802490, i64 1802511}
